target datalayout = "e-m:e-p270:32:32-p271:32:32-p272:64:64-i64:64-i128:128-f80:128-n8:16:32:64-S128"
target triple = "x86_64-pc-linux-gnu"

%struct.dirent = type { i64, i64, i16, i8, [256 x i8] }

@.str.51 = private unnamed_addr constant [29 x i8] c"%s: can't open directory: %m\00", align 1
@__func__._rmdir_recursive = private unnamed_addr constant [17 x i8] c"_rmdir_recursive\00", align 1
@.str.52 = private unnamed_addr constant [2 x i8] c".\00", align 1
@.str.53 = private unnamed_addr constant [3 x i8] c"..\00", align 1
@.str.54 = private unnamed_addr constant [22 x i8] c"%s: removed file `%s`\00", align 1
@.str.55 = private unnamed_addr constant [33 x i8] c"%s: removed empty directory `%s`\00", align 1
@.str.56 = private unnamed_addr constant [33 x i8] c"%s: openat() failed for `%s`: %m\00", align 1
@.str.57 = private unnamed_addr constant [35 x i8] c"%s: descending into directory `%s`\00", align 1
@.str.58 = private unnamed_addr constant [37 x i8] c"%s: removed now-empty directory `%s`\00", align 1
@.str.59 = private unnamed_addr constant [35 x i8] c"%s: unlinkat() failed for `%s`: %m\00", align 1

; Function Attrs: nounwind uwtable
define internal i32 @_rmdir_recursive(i32 noundef %0) #0 {
  %2 = alloca i32, align 4
  %3 = alloca i32, align 4
  %4 = alloca i32, align 4
  %5 = alloca ptr, align 8
  %6 = alloca ptr, align 8
  %7 = alloca i32, align 4
  %8 = alloca i32, align 4
  store i32 %0, ptr %3, align 4
  call void @llvm.lifetime.start.p0(i64 4, ptr %4) #10
  store i32 0, ptr %4, align 4
  call void @llvm.lifetime.start.p0(i64 8, ptr %5) #10
  call void @llvm.lifetime.start.p0(i64 8, ptr %6) #10
  %9 = load i32, ptr %3, align 4
  %10 = call ptr @fdopendir(i32 noundef %9)
  store ptr %10, ptr %5, align 8
  %11 = icmp ne ptr %10, null
  br i1 %11, label %16, label %12

12:                                               ; preds = %1
  %13 = call i32 (ptr, ...) @error(ptr noundef @.str.51, ptr noundef @__func__._rmdir_recursive)
  %14 = load i32, ptr %3, align 4
  %15 = call i32 @close(i32 noundef %14)
  store i32 1, ptr %2, align 4
  store i32 1, ptr %7, align 4
  br label %162

16:                                               ; preds = %1
  br label %17

17:                                               ; preds = %157, %155, %16
  %18 = load ptr, ptr %5, align 8
  %19 = call ptr @readdir(ptr noundef %18)
  store ptr %19, ptr %6, align 8
  %20 = icmp ne ptr %19, null
  br i1 %20, label %21, label %158

21:                                               ; preds = %17
  call void @llvm.lifetime.start.p0(i64 4, ptr %8) #10
  store i32 -1, ptr %8, align 4
  %22 = load ptr, ptr %6, align 8
  %23 = getelementptr inbounds nuw %struct.dirent, ptr %22, i32 0, i32 4
  %24 = getelementptr inbounds [256 x i8], ptr %23, i64 0, i64 0
  %25 = call i32 @strcmp(ptr noundef %24, ptr noundef @.str.52) #11
  %26 = icmp ne i32 %25, 0
  br i1 %26, label %27, label %33

27:                                               ; preds = %21
  %28 = load ptr, ptr %6, align 8
  %29 = getelementptr inbounds nuw %struct.dirent, ptr %28, i32 0, i32 4
  %30 = getelementptr inbounds [256 x i8], ptr %29, i64 0, i64 0
  %31 = call i32 @strcmp(ptr noundef %30, ptr noundef @.str.53) #11
  %32 = icmp ne i32 %31, 0
  br i1 %32, label %34, label %33

33:                                               ; preds = %27, %21
  store i32 2, ptr %7, align 4
  br label %155, !llvm.loop !20

34:                                               ; preds = %27
  %35 = load i32, ptr %3, align 4
  %36 = load ptr, ptr %6, align 8
  %37 = getelementptr inbounds nuw %struct.dirent, ptr %36, i32 0, i32 4
  %38 = getelementptr inbounds [256 x i8], ptr %37, i64 0, i64 0
  %39 = call i32 @unlinkat(i32 noundef %35, ptr noundef %38, i32 noundef 0) #10
  %40 = icmp ne i32 %39, -1
  br i1 %40, label %41, label %55

41:                                               ; preds = %34
  br label %42

42:                                               ; preds = %41
  br label %43

43:                                               ; preds = %42
  %44 = call i32 @get_log_level()
  %45 = icmp sge i32 %44, 5
  br i1 %45, label %46, label %50

46:                                               ; preds = %43
  %47 = load ptr, ptr %6, align 8
  %48 = getelementptr inbounds nuw %struct.dirent, ptr %47, i32 0, i32 4
  %49 = getelementptr inbounds [256 x i8], ptr %48, i64 0, i64 0
  call void (i32, ptr, ...) @log_var(i32 noundef 5, ptr noundef @.str.54, ptr noundef @__func__._rmdir_recursive, ptr noundef %49)
  br label %50

50:                                               ; preds = %46, %43
  br label %51

51:                                               ; preds = %50
  br label %52

52:                                               ; preds = %51
  br label %53

53:                                               ; preds = %52
  br label %54

54:                                               ; preds = %53
  store i32 2, ptr %7, align 4
  br label %155, !llvm.loop !20

55:                                               ; preds = %34
  %56 = load i32, ptr %3, align 4
  %57 = load ptr, ptr %6, align 8
  %58 = getelementptr inbounds nuw %struct.dirent, ptr %57, i32 0, i32 4
  %59 = getelementptr inbounds [256 x i8], ptr %58, i64 0, i64 0
  %60 = call i32 @unlinkat(i32 noundef %56, ptr noundef %59, i32 noundef 512) #10
  %61 = icmp ne i32 %60, -1
  br i1 %61, label %62, label %76

62:                                               ; preds = %55
  br label %63

63:                                               ; preds = %62
  br label %64

64:                                               ; preds = %63
  %65 = call i32 @get_log_level()
  %66 = icmp sge i32 %65, 5
  br i1 %66, label %67, label %71

67:                                               ; preds = %64
  %68 = load ptr, ptr %6, align 8
  %69 = getelementptr inbounds nuw %struct.dirent, ptr %68, i32 0, i32 4
  %70 = getelementptr inbounds [256 x i8], ptr %69, i64 0, i64 0
  call void (i32, ptr, ...) @log_var(i32 noundef 5, ptr noundef @.str.55, ptr noundef @__func__._rmdir_recursive, ptr noundef %70)
  br label %71

71:                                               ; preds = %67, %64
  br label %72

72:                                               ; preds = %71
  br label %73

73:                                               ; preds = %72
  br label %74

74:                                               ; preds = %73
  br label %75

75:                                               ; preds = %74
  store i32 2, ptr %7, align 4
  br label %155, !llvm.loop !20

76:                                               ; preds = %55
  br label %77

77:                                               ; preds = %76
  %78 = load i32, ptr %3, align 4
  %79 = load ptr, ptr %6, align 8
  %80 = getelementptr inbounds nuw %struct.dirent, ptr %79, i32 0, i32 4
  %81 = getelementptr inbounds [256 x i8], ptr %80, i64 0, i64 0
  %82 = call i32 (i32, ptr, i32, ...) @openat(i32 noundef %78, ptr noundef %81, i32 noundef 196608)
  store i32 %82, ptr %8, align 4
  %83 = icmp slt i32 %82, 0
  br i1 %83, label %84, label %100

84:                                               ; preds = %77
  br label %85

85:                                               ; preds = %84
  br label %86

86:                                               ; preds = %85
  %87 = call i32 @get_log_level()
  %88 = icmp sge i32 %87, 5
  br i1 %88, label %89, label %93

89:                                               ; preds = %86
  %90 = load ptr, ptr %6, align 8
  %91 = getelementptr inbounds nuw %struct.dirent, ptr %90, i32 0, i32 4
  %92 = getelementptr inbounds [256 x i8], ptr %91, i64 0, i64 0
  call void (i32, ptr, ...) @log_var(i32 noundef 5, ptr noundef @.str.56, ptr noundef @__func__._rmdir_recursive, ptr noundef %92)
  br label %93

93:                                               ; preds = %89, %86
  br label %94

94:                                               ; preds = %93
  br label %95

95:                                               ; preds = %94
  br label %96

96:                                               ; preds = %95
  br label %97

97:                                               ; preds = %96
  %98 = load i32, ptr %4, align 4
  %99 = add nsw i32 %98, 1
  store i32 %99, ptr %4, align 4
  store i32 2, ptr %7, align 4
  br label %155, !llvm.loop !20

100:                                              ; preds = %77
  br label %101

101:                                              ; preds = %100
  br label %102

102:                                              ; preds = %101
  %103 = call i32 @get_log_level()
  %104 = icmp sge i32 %103, 5
  br i1 %104, label %105, label %109

105:                                              ; preds = %102
  %106 = load ptr, ptr %6, align 8
  %107 = getelementptr inbounds nuw %struct.dirent, ptr %106, i32 0, i32 4
  %108 = getelementptr inbounds [256 x i8], ptr %107, i64 0, i64 0
  call void (i32, ptr, ...) @log_var(i32 noundef 5, ptr noundef @.str.57, ptr noundef @__func__._rmdir_recursive, ptr noundef %108)
  br label %109

109:                                              ; preds = %105, %102
  br label %110

110:                                              ; preds = %109
  br label %111

111:                                              ; preds = %110
  br label %112

112:                                              ; preds = %111
  br label %113

113:                                              ; preds = %112
  %114 = load i32, ptr %8, align 4
  %115 = call i32 @_rmdir_recursive(i32 noundef %114)
  %116 = load i32, ptr %4, align 4
  %117 = add nsw i32 %116, %115
  store i32 %117, ptr %4, align 4
  %118 = load i32, ptr %3, align 4
  %119 = load ptr, ptr %6, align 8
  %120 = getelementptr inbounds nuw %struct.dirent, ptr %119, i32 0, i32 4
  %121 = getelementptr inbounds [256 x i8], ptr %120, i64 0, i64 0
  %122 = call i32 @unlinkat(i32 noundef %118, ptr noundef %121, i32 noundef 512) #10
  %123 = icmp ne i32 %122, -1
  br i1 %123, label %124, label %138

124:                                              ; preds = %113
  br label %125

125:                                              ; preds = %124
  br label %126

126:                                              ; preds = %125
  %127 = call i32 @get_log_level()
  %128 = icmp sge i32 %127, 5
  br i1 %128, label %129, label %133

129:                                              ; preds = %126
  %130 = load ptr, ptr %6, align 8
  %131 = getelementptr inbounds nuw %struct.dirent, ptr %130, i32 0, i32 4
  %132 = getelementptr inbounds [256 x i8], ptr %131, i64 0, i64 0
  call void (i32, ptr, ...) @log_var(i32 noundef 5, ptr noundef @.str.58, ptr noundef @__func__._rmdir_recursive, ptr noundef %132)
  br label %133

133:                                              ; preds = %129, %126
  br label %134

134:                                              ; preds = %133
  br label %135

135:                                              ; preds = %134
  br label %136

136:                                              ; preds = %135
  br label %137

137:                                              ; preds = %136
  br label %154

138:                                              ; preds = %113
  br label %139

139:                                              ; preds = %138
  br label %140

140:                                              ; preds = %139
  %141 = call i32 @get_log_level()
  %142 = icmp sge i32 %141, 5
  br i1 %142, label %143, label %147

143:                                              ; preds = %140
  %144 = load ptr, ptr %6, align 8
  %145 = getelementptr inbounds nuw %struct.dirent, ptr %144, i32 0, i32 4
  %146 = getelementptr inbounds [256 x i8], ptr %145, i64 0, i64 0
  call void (i32, ptr, ...) @log_var(i32 noundef 5, ptr noundef @.str.59, ptr noundef @__func__._rmdir_recursive, ptr noundef %146)
  br label %147

147:                                              ; preds = %143, %140
  br label %148

148:                                              ; preds = %147
  br label %149

149:                                              ; preds = %148
  br label %150

150:                                              ; preds = %149
  br label %151

151:                                              ; preds = %150
  %152 = load i32, ptr %4, align 4
  %153 = add nsw i32 %152, 1
  store i32 %153, ptr %4, align 4
  br label %154

154:                                              ; preds = %151, %137
  store i32 0, ptr %7, align 4
  br label %155

155:                                              ; preds = %154, %97, %75, %54, %33
  call void @llvm.lifetime.end.p0(i64 4, ptr %8) #10
  %156 = load i32, ptr %7, align 4
  switch i32 %156, label %164 [
    i32 0, label %157
    i32 2, label %17
  ]

157:                                              ; preds = %155
  br label %17, !llvm.loop !20

158:                                              ; preds = %17
  %159 = load ptr, ptr %5, align 8
  %160 = call i32 @closedir(ptr noundef %159)
  %161 = load i32, ptr %4, align 4
  store i32 %161, ptr %2, align 4
  store i32 1, ptr %7, align 4
  br label %162

162:                                              ; preds = %158, %12
  call void @llvm.lifetime.end.p0(i64 8, ptr %6) #10
  call void @llvm.lifetime.end.p0(i64 8, ptr %5) #10
  call void @llvm.lifetime.end.p0(i64 4, ptr %4) #10
  %163 = load i32, ptr %2, align 4
  ret i32 %163

164:                                              ; preds = %155
  unreachable
}