; Function Attrs: nounwind uwtable
define internal fastcc i32 @_rmdir_recursive(i32 noundef range(i32 0, -2147483648) %0) unnamed_addr #0 {
  %2 = tail call ptr @fdopendir(i32 noundef %0) #10
  %.not = icmp eq ptr %2, null
  br i1 %.not, label %4, label %.preheader

.preheader:                                       ; preds = %1
  %3 = tail call ptr @readdir(ptr noundef nonnull %2) #10
  %.not2838 = icmp eq ptr %3, null
  br i1 %.not2838, label %._crit_edge, label %sub_0

4:                                                ; preds = %1
  %5 = tail call i32 (ptr, ...) @error(ptr noundef nonnull @.str.51, ptr noundef nonnull @__func__._rmdir_recursive) #10
  %6 = tail call i32 @close(i32 noundef %0) #10
  br label %55

sub_0:                                            ; preds = %.preheader, %52
  %7 = phi ptr [ %53, %52 ], [ %3, %.preheader ]
  %.02539 = phi i32 [ %.1, %52 ], [ 0, %.preheader ]
  %8 = getelementptr inbounds nuw i8, ptr %7, i64 19
  %9 = load i8, ptr %8, align 1
  %.not40 = icmp eq i8 %9, 46
  br i1 %.not40, label %.tail, label %.tail34.thread

.tail:                                            ; preds = %sub_0
  %10 = getelementptr inbounds nuw i8, ptr %7, i64 20
  %11 = load i8, ptr %10, align 1
  %12 = icmp eq i8 %11, 0
  br i1 %12, label %52, label %sub_136, !llvm.loop !18

sub_136:                                          ; preds = %.tail
  %13 = getelementptr inbounds nuw i8, ptr %7, i64 20
  %14 = load i8, ptr %13, align 1
  %.not42 = icmp eq i8 %14, 46
  br i1 %.not42, label %.tail34, label %.tail34.thread

.tail34:                                          ; preds = %sub_136
  %15 = getelementptr inbounds nuw i8, ptr %7, i64 21
  %16 = load i8, ptr %15, align 1
  %17 = icmp eq i8 %16, 0
  br i1 %17, label %52, label %.tail34.thread, !llvm.loop !18

.tail34.thread:                                   ; preds = %sub_0, %sub_136, %.tail34
  %18 = tail call i32 @unlinkat(i32 noundef %0, ptr noundef nonnull %8, i32 noundef 0) #10
  %.not31 = icmp eq i32 %18, -1
  br i1 %.not31, label %23, label %19

19:                                               ; preds = %.tail34.thread
  %20 = tail call i32 @get_log_level() #10
  %21 = icmp sgt i32 %20, 4
  br i1 %21, label %22, label %52, !llvm.loop !18

22:                                               ; preds = %19
  tail call void (i32, ptr, ...) @log_var(i32 noundef 5, ptr noundef nonnull @.str.54, ptr noundef nonnull @__func__._rmdir_recursive, ptr noundef nonnull %8) #10
  br label %52, !llvm.loop !18

23:                                               ; preds = %.tail34.thread
  %24 = tail call i32 @unlinkat(i32 noundef %0, ptr noundef nonnull %8, i32 noundef 512) #10
  %.not32 = icmp eq i32 %24, -1
  br i1 %.not32, label %29, label %25

25:                                               ; preds = %23
  %26 = tail call i32 @get_log_level() #10
  %27 = icmp sgt i32 %26, 4
  br i1 %27, label %28, label %52, !llvm.loop !18

28:                                               ; preds = %25
  tail call void (i32, ptr, ...) @log_var(i32 noundef 5, ptr noundef nonnull @.str.55, ptr noundef nonnull @__func__._rmdir_recursive, ptr noundef nonnull %8) #10
  br label %52, !llvm.loop !18

29:                                               ; preds = %23
  %30 = tail call i32 (i32, ptr, i32, ...) @openat(i32 noundef %0, ptr noundef nonnull %8, i32 noundef 196608) #10
  %31 = icmp slt i32 %30, 0
  %32 = tail call i32 @get_log_level() #10
  %33 = icmp sgt i32 %32, 4
  br i1 %31, label %34, label %38

34:                                               ; preds = %29
  br i1 %33, label %35, label %36

35:                                               ; preds = %34
  tail call void (i32, ptr, ...) @log_var(i32 noundef 5, ptr noundef nonnull @.str.56, ptr noundef nonnull @__func__._rmdir_recursive, ptr noundef nonnull %8) #10
  br label %36

36:                                               ; preds = %35, %34
  %37 = add nsw i32 %.02539, 1
  br label %52, !llvm.loop !18

38:                                               ; preds = %29
  br i1 %33, label %39, label %40

39:                                               ; preds = %38
  tail call void (i32, ptr, ...) @log_var(i32 noundef 5, ptr noundef nonnull @.str.57, ptr noundef nonnull @__func__._rmdir_recursive, ptr noundef nonnull %8) #10
  br label %40

40:                                               ; preds = %39, %38
  %41 = tail call fastcc i32 @_rmdir_recursive(i32 noundef %30)
  %42 = add nsw i32 %41, %.02539
  %43 = tail call i32 @unlinkat(i32 noundef %0, ptr noundef nonnull %8, i32 noundef 512) #10
  %.not33 = icmp eq i32 %43, -1
  %44 = tail call i32 @get_log_level() #10
  %45 = icmp sgt i32 %44, 4
  br i1 %.not33, label %48, label %46

46:                                               ; preds = %40
  br i1 %45, label %47, label %52

47:                                               ; preds = %46
  tail call void (i32, ptr, ...) @log_var(i32 noundef 5, ptr noundef nonnull @.str.58, ptr noundef nonnull @__func__._rmdir_recursive, ptr noundef nonnull %8) #10
  br label %52

48:                                               ; preds = %40
  br i1 %45, label %49, label %50

49:                                               ; preds = %48
  tail call void (i32, ptr, ...) @log_var(i32 noundef 5, ptr noundef nonnull @.str.59, ptr noundef nonnull @__func__._rmdir_recursive, ptr noundef nonnull %8) #10
  br label %50

50:                                               ; preds = %49, %48
  %51 = add nsw i32 %42, 1
  br label %52

52:                                               ; preds = %50, %47, %46, %25, %28, %19, %22, %.tail, %.tail34, %36
  %.1 = phi i32 [ %37, %36 ], [ %.02539, %.tail34 ], [ %.02539, %.tail ], [ %.02539, %22 ], [ %.02539, %19 ], [ %.02539, %28 ], [ %.02539, %25 ], [ %42, %47 ], [ %42, %46 ], [ %51, %50 ]
  %53 = tail call ptr @readdir(ptr noundef nonnull %2) #10
  %.not28 = icmp eq ptr %53, null
  br i1 %.not28, label %._crit_edge, label %sub_0

._crit_edge:                                      ; preds = %52, %.preheader
  %.025.lcssa = phi i32 [ 0, %.preheader ], [ %.1, %52 ]
  %54 = tail call i32 @closedir(ptr noundef nonnull %2)
  br label %55

55:                                               ; preds = %._crit_edge, %4
  %.0 = phi i32 [ %.025.lcssa, %._crit_edge ], [ 1, %4 ]
  ret i32 %.0
}